; ModuleID = '60/1576.c'
source_filename = "60/1576.c"
target datalayout = "e-m:e-p270:32:32-p271:32:32-p272:64:64-i64:64-f80:128-n8:16:32:64-S128"
target triple = "x86_64-pc-linux-gnu"

@.str = private unnamed_addr constant [3 x i8] c"%d\00", align 1
@.str.1 = private unnamed_addr constant [7 x i8] c"%d %d\0A\00", align 1
@.str.2 = private unnamed_addr constant [7 x i8] c"empty\0A\00", align 1

; Function Attrs: noinline nounwind uwtable
define dso_local i32 @main() #0 {
  %1 = alloca i32, align 4
  %2 = alloca i32, align 4
  %3 = alloca i32, align 4
  %4 = alloca [10000 x i32], align 16
  %5 = alloca i32, align 4
  %6 = alloca i32, align 4
  %7 = alloca i32, align 4
  %8 = alloca i32, align 4
  store i32 0, i32* %1, align 4
  store i32 0, i32* %5, align 4
  store i32 0, i32* %6, align 4
  store i32 0, i32* %8, align 4
  %9 = call i32 (i8*, ...) @__isoc99_scanf(i8* getelementptr inbounds ([3 x i8], [3 x i8]* @.str, i64 0, i64 0), i32* %2)
  store i32 3, i32* %3, align 4
  br label %10

10:                                               ; preds = %44, %0
  %11 = load i32, i32* %3, align 4
  %12 = load i32, i32* %2, align 4
  %13 = icmp sle i32 %11, %12
  br i1 %13, label %14, label %47

14:                                               ; preds = %10
  store i32 0, i32* %7, align 4
  store i32 2, i32* %6, align 4
  br label %15

15:                                               ; preds = %29, %14
  %16 = load i32, i32* %6, align 4
  %17 = sitofp i32 %16 to double
  %18 = load i32, i32* %3, align 4
  %19 = sitofp i32 %18 to double
  %20 = call double @sqrt(double %19) #3
  %21 = fcmp ole double %17, %20
  br i1 %21, label %22, label %32

22:                                               ; preds = %15
  %23 = load i32, i32* %3, align 4
  %24 = load i32, i32* %6, align 4
  %25 = srem i32 %23, %24
  %26 = icmp eq i32 %25, 0
  br i1 %26, label %27, label %28

27:                                               ; preds = %22
  store i32 1, i32* %7, align 4
  br label %28

28:                                               ; preds = %27, %22
  br label %29

29:                                               ; preds = %28
  %30 = load i32, i32* %6, align 4
  %31 = add nsw i32 %30, 1
  store i32 %31, i32* %6, align 4
  br label %15

32:                                               ; preds = %15
  %33 = load i32, i32* %7, align 4
  %34 = icmp eq i32 %33, 0
  br i1 %34, label %35, label %43

35:                                               ; preds = %32
  %36 = load i32, i32* %5, align 4
  %37 = add nsw i32 %36, 1
  store i32 %37, i32* %5, align 4
  %38 = load i32, i32* %3, align 4
  %39 = load i32, i32* %5, align 4
  %40 = sext i32 %39 to i64
  %41 = getelementptr inbounds [10000 x i32], [10000 x i32]* %4, i64 0, i64 %40
  store i32 %38, i32* %41, align 4
  %42 = load i32, i32* %5, align 4
  store i32 %42, i32* %8, align 4
  br label %43

43:                                               ; preds = %35, %32
  br label %44

44:                                               ; preds = %43
  %45 = load i32, i32* %3, align 4
  %46 = add nsw i32 %45, 2
  store i32 %46, i32* %3, align 4
  br label %10

47:                                               ; preds = %10
  store i32 0, i32* %6, align 4
  store i32 1, i32* %5, align 4
  br label %48

48:                                               ; preds = %78, %47
  %49 = load i32, i32* %5, align 4
  %50 = load i32, i32* %8, align 4
  %51 = icmp sle i32 %49, %50
  br i1 %51, label %52, label %81

52:                                               ; preds = %48
  %53 = load i32, i32* %5, align 4
  %54 = add nsw i32 %53, 1
  %55 = sext i32 %54 to i64
  %56 = getelementptr inbounds [10000 x i32], [10000 x i32]* %4, i64 0, i64 %55
  %57 = load i32, i32* %56, align 4
  %58 = load i32, i32* %5, align 4
  %59 = sext i32 %58 to i64
  %60 = getelementptr inbounds [10000 x i32], [10000 x i32]* %4, i64 0, i64 %59
  %61 = load i32, i32* %60, align 4
  %62 = sub nsw i32 %57, %61
  %63 = icmp eq i32 %62, 2
  br i1 %63, label %64, label %77

64:                                               ; preds = %52
  %65 = load i32, i32* %5, align 4
  %66 = sext i32 %65 to i64
  %67 = getelementptr inbounds [10000 x i32], [10000 x i32]* %4, i64 0, i64 %66
  %68 = load i32, i32* %67, align 4
  %69 = load i32, i32* %5, align 4
  %70 = add nsw i32 %69, 1
  %71 = sext i32 %70 to i64
  %72 = getelementptr inbounds [10000 x i32], [10000 x i32]* %4, i64 0, i64 %71
  %73 = load i32, i32* %72, align 4
  %74 = call i32 (i8*, ...) @printf(i8* getelementptr inbounds ([7 x i8], [7 x i8]* @.str.1, i64 0, i64 0), i32 %68, i32 %73)
  %75 = load i32, i32* %6, align 4
  %76 = add nsw i32 %75, 1
  store i32 %76, i32* %6, align 4
  br label %77

77:                                               ; preds = %64, %52
  br label %78

78:                                               ; preds = %77
  %79 = load i32, i32* %5, align 4
  %80 = add nsw i32 %79, 1
  store i32 %80, i32* %5, align 4
  br label %48

81:                                               ; preds = %48
  %82 = load i32, i32* %6, align 4
  %83 = icmp eq i32 %82, 0
  br i1 %83, label %84, label %86

84:                                               ; preds = %81
  %85 = call i32 (i8*, ...) @printf(i8* getelementptr inbounds ([7 x i8], [7 x i8]* @.str.2, i64 0, i64 0))
  br label %86

86:                                               ; preds = %84, %81
  ret i32 0
}

declare dso_local i32 @__isoc99_scanf(i8*, ...) #1

; Function Attrs: nounwind
declare dso_local double @sqrt(double) #2

declare dso_local i32 @printf(i8*, ...) #1


!llvm.module.flags = !{!0}
!llvm.ident = !{!1}

!0 = !{i32 1, !"wchar_size", i32 4}
!1 = !{!"clang version 10.0.0-4ubuntu1 "}
